target datalayout = "e-m:e-p270:32:32-p271:32:32-p272:64:64-i64:64-i128:128-f80:128-n8:16:32:64-S128"
target triple = "x86_64-pc-linux-gnu"

@hf_smb2_unknown = internal global i32 0, align 4
@hf_smb2_end_of_file = internal global i32 0, align 4
@hf_smb2_nlinks = internal global i32 0, align 4
@hf_smb2_file_id = internal global i32 0, align 4
@hf_smb2_allocation_size = internal global i32 0, align 4
@hf_smb2_filename = internal global i32 0, align 4
@hf_smb2_filename_len = internal global i32 0, align 4
@hf_smb2_ea_size = internal global i32 0, align 4
@hf_smb2_position_information = internal global i32 0, align 4
@hf_smb2_mode_information = internal global i32 0, align 4
@hf_smb2_alignment_information = internal global i32 0, align 4
@hf_smb2_create_timestamp = internal global i32 0, align 4
@hf_smb2_last_access_timestamp = internal global i32 0, align 4
@hf_smb2_last_write_timestamp = internal global i32 0, align 4
@hf_smb2_last_change_timestamp = internal global i32 0, align 4
@hf_smb2_file_all_info = internal global i32 0, align 4
@hf_smb2_delete_pending = internal global i32 0, align 4
@hf_smb2_is_directory = internal global i32 0, align 4
@hf_smb2_fscc_file_attr = internal global i32 0, align 4
@ett_smb2_file_mode_info = internal global i32 0, align 4
@ett_smb2_file_all_info = internal global i32 0, align 4
@ett_smb2_fscc_file_attributes = internal global i32 0, align 4

; Function Attrs: null_pointer_is_valid sspstrong uwtable
define internal i32 @dissect_fscc_file_attr(ptr noundef %0, ptr noundef %1, i32 noundef %2, ptr noundef %3) #0 {
  %5 = alloca ptr, align 8
  %6 = alloca ptr, align 8
  %7 = alloca i32, align 4
  %8 = alloca ptr, align 8
  %9 = alloca i32, align 4
  store ptr %0, ptr %5, align 8
  store ptr %1, ptr %6, align 8
  store i32 %2, ptr %7, align 4
  store ptr %3, ptr %8, align 8
  call void @llvm.lifetime.start.p0(i64 4, ptr %9) #13
  %10 = load ptr, ptr %5, align 8
  %11 = load i32, ptr %7, align 4
  %12 = call i32 @tvb_get_letohl(ptr noundef %10, i32 noundef %11)
  store i32 %12, ptr %9, align 4
  %13 = load ptr, ptr %6, align 8
  %14 = load ptr, ptr %5, align 8
  %15 = load i32, ptr %7, align 4
  %16 = load i32, ptr @hf_smb2_fscc_file_attr, align 4
  %17 = load i32, ptr @ett_smb2_fscc_file_attributes, align 4
  %18 = load i32, ptr %9, align 4
  %19 = zext i32 %18 to i64
  %20 = call ptr @proto_tree_add_bitmask_value_with_flags(ptr noundef %13, ptr noundef %14, i32 noundef %15, i32 noundef %16, i32 noundef %17, ptr noundef @dissect_fscc_file_attr.mask_fields, i64 noundef %19, i32 noundef 1)
  %21 = load i32, ptr %7, align 4
  %22 = add i32 %21, 4
  store i32 %22, ptr %7, align 4
  %23 = load ptr, ptr %8, align 8
  %24 = icmp ne ptr %23, null
  br i1 %24, label %25, label %28

25:                                               ; preds = %4
  %26 = load i32, ptr %9, align 4
  %27 = load ptr, ptr %8, align 8
  store i32 %26, ptr %27, align 4
  br label %28

28:                                               ; preds = %25, %4
  %29 = load i32, ptr %7, align 4
  call void @llvm.lifetime.end.p0(i64 4, ptr %9) #13
  ret i32 %29
}

; Function Attrs: null_pointer_is_valid sspstrong uwtable
define internal i32 @dissect_smb2_file_all_info(ptr noundef %0, ptr noundef %1, ptr noundef %2, i32 noundef %3, ptr noundef %4) #0 {
  %6 = alloca ptr, align 8
  %7 = alloca ptr, align 8
  %8 = alloca ptr, align 8
  %9 = alloca i32, align 4
  %10 = alloca ptr, align 8
  %11 = alloca ptr, align 8
  %12 = alloca ptr, align 8
  %13 = alloca i32, align 4
  store ptr %0, ptr %6, align 8
  store ptr %1, ptr %7, align 8
  store ptr %2, ptr %8, align 8
  store i32 %3, ptr %9, align 4
  store ptr %4, ptr %10, align 8
  call void @llvm.lifetime.start.p0(i64 8, ptr %11) #13
  store ptr null, ptr %11, align 8
  call void @llvm.lifetime.start.p0(i64 8, ptr %12) #13
  store ptr null, ptr %12, align 8
  call void @llvm.lifetime.start.p0(i64 4, ptr %13) #13
  %14 = load ptr, ptr %8, align 8
  %15 = icmp ne ptr %14, null
  br i1 %15, label %16, label %25

16:                                               ; preds = %5
  %17 = load ptr, ptr %8, align 8
  %18 = load i32, ptr @hf_smb2_file_all_info, align 4
  %19 = load ptr, ptr %6, align 8
  %20 = load i32, ptr %9, align 4
  %21 = call ptr @proto_tree_add_item(ptr noundef %17, i32 noundef %18, ptr noundef %19, i32 noundef %20, i32 noundef -1, i32 noundef 0)
  store ptr %21, ptr %11, align 8
  %22 = load ptr, ptr %11, align 8
  %23 = load i32, ptr @ett_smb2_file_all_info, align 4
  %24 = call ptr @proto_item_add_subtree(ptr noundef %22, i32 noundef %23)
  store ptr %24, ptr %12, align 8
  br label %25

25:                                               ; preds = %16, %5
  %26 = load ptr, ptr %6, align 8
  %27 = load ptr, ptr %12, align 8
  %28 = load i32, ptr %9, align 4
  %29 = load i32, ptr @hf_smb2_create_timestamp, align 4
  %30 = call ptr @dissect_nttime(ptr noundef %26, ptr noundef %27, i32 noundef %28, i32 noundef %29, i32 noundef -2147483648)
  %31 = load i32, ptr %9, align 4
  %32 = add i32 %31, 8
  store i32 %32, ptr %9, align 4
  %33 = load ptr, ptr %6, align 8
  %34 = load ptr, ptr %12, align 8
  %35 = load i32, ptr %9, align 4
  %36 = load i32, ptr @hf_smb2_last_access_timestamp, align 4
  %37 = call ptr @dissect_nttime(ptr noundef %33, ptr noundef %34, i32 noundef %35, i32 noundef %36, i32 noundef -2147483648)
  %38 = load i32, ptr %9, align 4
  %39 = add i32 %38, 8
  store i32 %39, ptr %9, align 4
  %40 = load ptr, ptr %6, align 8
  %41 = load ptr, ptr %12, align 8
  %42 = load i32, ptr %9, align 4
  %43 = load i32, ptr @hf_smb2_last_write_timestamp, align 4
  %44 = call ptr @dissect_nttime(ptr noundef %40, ptr noundef %41, i32 noundef %42, i32 noundef %43, i32 noundef -2147483648)
  %45 = load i32, ptr %9, align 4
  %46 = add i32 %45, 8
  store i32 %46, ptr %9, align 4
  %47 = load ptr, ptr %6, align 8
  %48 = load ptr, ptr %12, align 8
  %49 = load i32, ptr %9, align 4
  %50 = load i32, ptr @hf_smb2_last_change_timestamp, align 4
  %51 = call ptr @dissect_nttime(ptr noundef %47, ptr noundef %48, i32 noundef %49, i32 noundef %50, i32 noundef -2147483648)
  %52 = load i32, ptr %9, align 4
  %53 = add i32 %52, 8
  store i32 %53, ptr %9, align 4
  %54 = load ptr, ptr %6, align 8
  %55 = load ptr, ptr %12, align 8
  %56 = load i32, ptr %9, align 4
  %57 = call i32 @dissect_fscc_file_attr(ptr noundef %54, ptr noundef %55, i32 noundef %56, ptr noundef null)
  store i32 %57, ptr %9, align 4
  %58 = load ptr, ptr %12, align 8
  %59 = load i32, ptr @hf_smb2_unknown, align 4
  %60 = load ptr, ptr %6, align 8
  %61 = load i32, ptr %9, align 4
  %62 = call ptr @proto_tree_add_item(ptr noundef %58, i32 noundef %59, ptr noundef %60, i32 noundef %61, i32 noundef 4, i32 noundef 0)
  %63 = load i32, ptr %9, align 4
  %64 = add i32 %63, 4
  store i32 %64, ptr %9, align 4
  %65 = load ptr, ptr %12, align 8
  %66 = load i32, ptr @hf_smb2_allocation_size, align 4
  %67 = load ptr, ptr %6, align 8
  %68 = load i32, ptr %9, align 4
  %69 = call ptr @proto_tree_add_item(ptr noundef %65, i32 noundef %66, ptr noundef %67, i32 noundef %68, i32 noundef 8, i32 noundef -2147483648)
  %70 = load i32, ptr %9, align 4
  %71 = add i32 %70, 8
  store i32 %71, ptr %9, align 4
  %72 = load ptr, ptr %12, align 8
  %73 = load i32, ptr @hf_smb2_end_of_file, align 4
  %74 = load ptr, ptr %6, align 8
  %75 = load i32, ptr %9, align 4
  %76 = call ptr @proto_tree_add_item(ptr noundef %72, i32 noundef %73, ptr noundef %74, i32 noundef %75, i32 noundef 8, i32 noundef -2147483648)
  %77 = load i32, ptr %9, align 4
  %78 = add i32 %77, 8
  store i32 %78, ptr %9, align 4
  %79 = load ptr, ptr %12, align 8
  %80 = load i32, ptr @hf_smb2_nlinks, align 4
  %81 = load ptr, ptr %6, align 8
  %82 = load i32, ptr %9, align 4
  %83 = call ptr @proto_tree_add_item(ptr noundef %79, i32 noundef %80, ptr noundef %81, i32 noundef %82, i32 noundef 4, i32 noundef -2147483648)
  %84 = load i32, ptr %9, align 4
  %85 = add i32 %84, 4
  store i32 %85, ptr %9, align 4
  %86 = load ptr, ptr %12, align 8
  %87 = load i32, ptr @hf_smb2_delete_pending, align 4
  %88 = load ptr, ptr %6, align 8
  %89 = load i32, ptr %9, align 4
  %90 = call ptr @proto_tree_add_item(ptr noundef %86, i32 noundef %87, ptr noundef %88, i32 noundef %89, i32 noundef 1, i32 noundef -2147483648)
  %91 = load i32, ptr %9, align 4
  %92 = add i32 %91, 1
  store i32 %92, ptr %9, align 4
  %93 = load ptr, ptr %12, align 8
  %94 = load i32, ptr @hf_smb2_is_directory, align 4
  %95 = load ptr, ptr %6, align 8
  %96 = load i32, ptr %9, align 4
  %97 = call ptr @proto_tree_add_item(ptr noundef %93, i32 noundef %94, ptr noundef %95, i32 noundef %96, i32 noundef 1, i32 noundef -2147483648)
  %98 = load i32, ptr %9, align 4
  %99 = add i32 %98, 1
  store i32 %99, ptr %9, align 4
  %100 = load i32, ptr %9, align 4
  %101 = add i32 %100, 2
  store i32 %101, ptr %9, align 4
  %102 = load ptr, ptr %12, align 8
  %103 = load i32, ptr @hf_smb2_file_id, align 4
  %104 = load ptr, ptr %6, align 8
  %105 = load i32, ptr %9, align 4
  %106 = call ptr @proto_tree_add_item(ptr noundef %102, i32 noundef %103, ptr noundef %104, i32 noundef %105, i32 noundef 8, i32 noundef -2147483648)
  %107 = load i32, ptr %9, align 4
  %108 = add i32 %107, 8
  store i32 %108, ptr %9, align 4
  %109 = load ptr, ptr %12, align 8
  %110 = load i32, ptr @hf_smb2_ea_size, align 4
  %111 = load ptr, ptr %6, align 8
  %112 = load i32, ptr %9, align 4
  %113 = call ptr @proto_tree_add_item(ptr noundef %109, i32 noundef %110, ptr noundef %111, i32 noundef %112, i32 noundef 4, i32 noundef -2147483648)
  %114 = load i32, ptr %9, align 4
  %115 = add i32 %114, 4
  store i32 %115, ptr %9, align 4
  %116 = load ptr, ptr %6, align 8
  %117 = load ptr, ptr %12, align 8
  %118 = load i32, ptr %9, align 4
  %119 = call i32 @dissect_smb_access_mask(ptr noundef %116, ptr noundef %117, i32 noundef %118)
  store i32 %119, ptr %9, align 4
  %120 = load ptr, ptr %12, align 8
  %121 = load i32, ptr @hf_smb2_position_information, align 4
  %122 = load ptr, ptr %6, align 8
  %123 = load i32, ptr %9, align 4
  %124 = call ptr @proto_tree_add_item(ptr noundef %120, i32 noundef %121, ptr noundef %122, i32 noundef %123, i32 noundef 8, i32 noundef 0)
  %125 = load i32, ptr %9, align 4
  %126 = add i32 %125, 8
  store i32 %126, ptr %9, align 4
  %127 = load ptr, ptr %12, align 8
  %128 = load ptr, ptr %6, align 8
  %129 = load i32, ptr %9, align 4
  %130 = load i32, ptr @hf_smb2_mode_information, align 4
  %131 = load i32, ptr @ett_smb2_file_mode_info, align 4
  %132 = call ptr @proto_tree_add_bitmask(ptr noundef %127, ptr noundef %128, i32 noundef %129, i32 noundef %130, i32 noundef %131, ptr noundef @dissect_smb2_file_all_info.mode_fields, i32 noundef -2147483648)
  %133 = load i32, ptr %9, align 4
  %134 = add i32 %133, 4
  store i32 %134, ptr %9, align 4
  %135 = load ptr, ptr %12, align 8
  %136 = load i32, ptr @hf_smb2_alignment_information, align 4
  %137 = load ptr, ptr %6, align 8
  %138 = load i32, ptr %9, align 4
  %139 = call ptr @proto_tree_add_item(ptr noundef %135, i32 noundef %136, ptr noundef %137, i32 noundef %138, i32 noundef 4, i32 noundef 0)
  %140 = load i32, ptr %9, align 4
  %141 = add i32 %140, 4
  store i32 %141, ptr %9, align 4
  %142 = load ptr, ptr %6, align 8
  %143 = load i32, ptr %9, align 4
  %144 = call zeroext i16 @tvb_get_letohs(ptr noundef %142, i32 noundef %143)
  %145 = zext i16 %144 to i32
  store i32 %145, ptr %13, align 4
  %146 = load ptr, ptr %12, align 8
  %147 = load i32, ptr @hf_smb2_filename_len, align 4
  %148 = load ptr, ptr %6, align 8
  %149 = load i32, ptr %9, align 4
  %150 = call ptr @proto_tree_add_item(ptr noundef %146, i32 noundef %147, ptr noundef %148, i32 noundef %149, i32 noundef 4, i32 noundef -2147483648)
  %151 = load i32, ptr %9, align 4
  %152 = add i32 %151, 4
  store i32 %152, ptr %9, align 4
  %153 = load i32, ptr %13, align 4
  %154 = icmp ne i32 %153, 0
  br i1 %154, label %155, label %165

155:                                              ; preds = %25
  %156 = load ptr, ptr %12, align 8
  %157 = load i32, ptr @hf_smb2_filename, align 4
  %158 = load ptr, ptr %6, align 8
  %159 = load i32, ptr %9, align 4
  %160 = load i32, ptr %13, align 4
  %161 = call ptr @proto_tree_add_item(ptr noundef %156, i32 noundef %157, ptr noundef %158, i32 noundef %159, i32 noundef %160, i32 noundef -2147483644)
  %162 = load i32, ptr %13, align 4
  %163 = load i32, ptr %9, align 4
  %164 = add i32 %163, %162
  store i32 %164, ptr %9, align 4
  br label %165

165:                                              ; preds = %155, %25
  %166 = load i32, ptr %9, align 4
  call void @llvm.lifetime.end.p0(i64 4, ptr %13) #13
  call void @llvm.lifetime.end.p0(i64 8, ptr %12) #13
  call void @llvm.lifetime.end.p0(i64 8, ptr %11) #13
  ret i32 %166
}