; Function Attrs: null_pointer_is_valid sspstrong uwtable
define internal fastcc noundef i32 @dissect_smb2_file_all_info(ptr noundef %0, ptr noundef %1, i32 noundef range(i32 0, 65536) %2) unnamed_addr #0 {
  %.not = icmp eq ptr %1, null
  br i1 %.not, label %9, label %4

4:                                                ; preds = %3
  %5 = load i32, ptr @hf_smb2_file_all_info, align 4
  %6 = tail call ptr @proto_tree_add_item(ptr noundef nonnull %1, i32 noundef %5, ptr noundef %0, i32 noundef %2, i32 noundef -1, i32 noundef 0)
  %7 = load i32, ptr @ett_smb2_file_all_info, align 4
  %8 = tail call ptr @proto_item_add_subtree(ptr noundef %6, i32 noundef %7)
  br label %9

9:                                                ; preds = %4, %3
  %.085 = phi ptr [ %8, %4 ], [ null, %3 ]
  %10 = load i32, ptr @hf_smb2_create_timestamp, align 4
  %11 = tail call ptr @dissect_nttime(ptr noundef %0, ptr noundef %.085, i32 noundef %2, i32 noundef %10, i32 noundef -2147483648)
  %12 = add nuw nsw i32 %2, 8
  %13 = load i32, ptr @hf_smb2_last_access_timestamp, align 4
  %14 = tail call ptr @dissect_nttime(ptr noundef %0, ptr noundef %.085, i32 noundef %12, i32 noundef %13, i32 noundef -2147483648)
  %15 = add nuw nsw i32 %2, 16
  %16 = load i32, ptr @hf_smb2_last_write_timestamp, align 4
  %17 = tail call ptr @dissect_nttime(ptr noundef %0, ptr noundef %.085, i32 noundef %15, i32 noundef %16, i32 noundef -2147483648)
  %18 = add nuw nsw i32 %2, 24
  %19 = load i32, ptr @hf_smb2_last_change_timestamp, align 4
  %20 = tail call ptr @dissect_nttime(ptr noundef %0, ptr noundef %.085, i32 noundef %18, i32 noundef %19, i32 noundef -2147483648)
  %21 = add nuw nsw i32 %2, 32
  %22 = tail call i32 @tvb_get_letohl(ptr noundef %0, i32 noundef %21)
  %23 = load i32, ptr @hf_smb2_fscc_file_attr, align 4
  %24 = load i32, ptr @ett_smb2_fscc_file_attributes, align 4
  %25 = zext i32 %22 to i64
  %26 = tail call ptr @proto_tree_add_bitmask_value_with_flags(ptr noundef %.085, ptr noundef %0, i32 noundef %21, i32 noundef %23, i32 noundef %24, ptr noundef nonnull @dissect_fscc_file_attr.mask_fields, i64 noundef %25, i32 noundef 1)
  %27 = add nuw nsw i32 %2, 36
  %28 = load i32, ptr @hf_smb2_unknown, align 4
  %29 = tail call ptr @proto_tree_add_item(ptr noundef %.085, i32 noundef %28, ptr noundef %0, i32 noundef %27, i32 noundef 4, i32 noundef 0)
  %30 = add nuw nsw i32 %2, 40
  %31 = load i32, ptr @hf_smb2_allocation_size, align 4
  %32 = tail call ptr @proto_tree_add_item(ptr noundef %.085, i32 noundef %31, ptr noundef %0, i32 noundef %30, i32 noundef 8, i32 noundef -2147483648)
  %33 = add nuw nsw i32 %2, 48
  %34 = load i32, ptr @hf_smb2_end_of_file, align 4
  %35 = tail call ptr @proto_tree_add_item(ptr noundef %.085, i32 noundef %34, ptr noundef %0, i32 noundef %33, i32 noundef 8, i32 noundef -2147483648)
  %36 = add nuw nsw i32 %2, 56
  %37 = load i32, ptr @hf_smb2_nlinks, align 4
  %38 = tail call ptr @proto_tree_add_item(ptr noundef %.085, i32 noundef %37, ptr noundef %0, i32 noundef %36, i32 noundef 4, i32 noundef -2147483648)
  %39 = add nuw nsw i32 %2, 60
  %40 = load i32, ptr @hf_smb2_delete_pending, align 4
  %41 = tail call ptr @proto_tree_add_item(ptr noundef %.085, i32 noundef %40, ptr noundef %0, i32 noundef %39, i32 noundef 1, i32 noundef -2147483648)
  %42 = add nuw nsw i32 %2, 61
  %43 = load i32, ptr @hf_smb2_is_directory, align 4
  %44 = tail call ptr @proto_tree_add_item(ptr noundef %.085, i32 noundef %43, ptr noundef %0, i32 noundef %42, i32 noundef 1, i32 noundef -2147483648)
  %45 = add nuw nsw i32 %2, 64
  %46 = load i32, ptr @hf_smb2_file_id, align 4
  %47 = tail call ptr @proto_tree_add_item(ptr noundef %.085, i32 noundef %46, ptr noundef %0, i32 noundef %45, i32 noundef 8, i32 noundef -2147483648)
  %48 = add nuw nsw i32 %2, 72
  %49 = load i32, ptr @hf_smb2_ea_size, align 4
  %50 = tail call ptr @proto_tree_add_item(ptr noundef %.085, i32 noundef %49, ptr noundef %0, i32 noundef %48, i32 noundef 4, i32 noundef -2147483648)
  %51 = add nuw nsw i32 %2, 76
  %52 = tail call i32 @dissect_smb_access_mask(ptr noundef %0, ptr noundef %.085, i32 noundef %51)
  %53 = load i32, ptr @hf_smb2_position_information, align 4
  %54 = tail call ptr @proto_tree_add_item(ptr noundef %.085, i32 noundef %53, ptr noundef %0, i32 noundef %52, i32 noundef 8, i32 noundef 0)
  %55 = add i32 %52, 8
  %56 = load i32, ptr @hf_smb2_mode_information, align 4
  %57 = load i32, ptr @ett_smb2_file_mode_info, align 4
  %58 = tail call ptr @proto_tree_add_bitmask(ptr noundef %.085, ptr noundef %0, i32 noundef %55, i32 noundef %56, i32 noundef %57, ptr noundef nonnull @dissect_smb2_file_all_info.mode_fields, i32 noundef -2147483648)
  %59 = add i32 %52, 12
  %60 = load i32, ptr @hf_smb2_alignment_information, align 4
  %61 = tail call ptr @proto_tree_add_item(ptr noundef %.085, i32 noundef %60, ptr noundef %0, i32 noundef %59, i32 noundef 4, i32 noundef 0)
  %62 = add i32 %52, 16
  %63 = tail call zeroext i16 @tvb_get_letohs(ptr noundef %0, i32 noundef %62)
  %64 = load i32, ptr @hf_smb2_filename_len, align 4
  %65 = tail call ptr @proto_tree_add_item(ptr noundef %.085, i32 noundef %64, ptr noundef %0, i32 noundef %62, i32 noundef 4, i32 noundef -2147483648)
  %66 = add i32 %52, 20
  %.not88 = icmp eq i16 %63, 0
  br i1 %.not88, label %72, label %67

67:                                               ; preds = %9
  %68 = zext i16 %63 to i32
  %69 = load i32, ptr @hf_smb2_filename, align 4
  %70 = tail call ptr @proto_tree_add_item(ptr noundef %.085, i32 noundef %69, ptr noundef %0, i32 noundef %66, i32 noundef %68, i32 noundef -2147483644)
  %71 = add i32 %66, %68
  br label %72

72:                                               ; preds = %67, %9
  %.0 = phi i32 [ %71, %67 ], [ %66, %9 ]
  ret i32 %.0
}